(lp0
(lp1
cnumpy.core.multiarray
scalar
p2
(cnumpy
dtype
p3
(S'f8'
p4
I0
I1
tp5
Rp6
(I3
S'<'
p7
NNNI-1
I-1
I0
tp8
bS';\xb1\x13\xdb\xcc\x87 @'
p9
tp10
Rp11
ag2
(g6
S'\xd9\x89\x9d\xd8\x1d~#@'
p12
tp13
Rp14
aa(lp15
g2
(g6
S'\xec\xc4N\xec\xc4\x0e\x88?'
p16
tp17
Rp18
ag2
(g6
S"b'vb'vJ?"
p19
tp20
Rp21
aa.