(lp0
(lp1
cnumpy.core.multiarray
scalar
p2
(cnumpy
dtype
p3
(S'f8'
p4
I0
I1
tp5
Rp6
(I3
S'<'
p7
NNNI-1
I-1
I0
tp8
bS'l\x0e$\xfa\x8c\xa1"@'
p9
tp10
Rp11
aa(lp12
g2
(g6
S'\xdd(f\x7f>\x9cr?'
p13
tp14
Rp15
aa.