(lp0
(lp1
cnumpy.core.multiarray
scalar
p2
(cnumpy
dtype
p3
(S'f8'
p4
I0
I1
tp5
Rp6
(I3
S'<'
p7
NNNI-1
I-1
I0
tp8
bS'C\xa8\xa4[\x96\n"@'
p9
tp10
Rp11
ag2
(g6
S')f\x7f\x9ez7!@'
p12
tp13
Rp14
aa(lp15
g2
(g6
S'\x82D+l\x0e$\x89?'
p16
tp17
Rp18
ag2
(g6
S'\x08\x95t\xa3\x98\xfd\x84?'
p19
tp20
Rp21
aa.