(lp0
(lp1
cnumpy.core.multiarray
scalar
p2
(cnumpy
dtype
p3
(S'f8'
p4
I0
I1
tp5
Rp6
(I3
S'<'
p7
NNNI-1
I-1
I0
tp8
bS'\xe8\x90\x9a\xe0\xa2\xfd @'
p9
tp10
Rp11
ag2
(g6
S'"5\xc1\xb8A#!@'
p12
tp13
Rp14
ag2
(g6
S'\xedsH\xed~(!@'
p15
tp16
Rp17
aa(lp18
g2
(g6
S':\xa4&\x18oe\x8b?'
p19
tp20
Rp21
ag2
(g6
S'\xbc\x95}\x0e\xa9\t\x86?'
p22
tp23
Rp24
ag2
(g6
S'a\xbc\x95}\x0e)\x85?'
p25
tp26
Rp27
aa.